; ModuleID = '63/525.c'
source_filename = "63/525.c"
target datalayout = "e-m:e-p270:32:32-p271:32:32-p272:64:64-i64:64-f80:128-n8:16:32:64-S128"
target triple = "x86_64-pc-linux-gnu"

@.str = private unnamed_addr constant [6 x i8] c"%d %d\00", align 1
@.str.1 = private unnamed_addr constant [3 x i8] c"%d\00", align 1
@.str.2 = private unnamed_addr constant [4 x i8] c"%d \00", align 1
@.str.3 = private unnamed_addr constant [4 x i8] c"%d\0A\00", align 1

; Function Attrs: noinline nounwind uwtable
define dso_local void @main() #0 {
  %1 = alloca [100 x [100 x i32]], align 16
  %2 = alloca [100 x [100 x i32]], align 16
  %3 = alloca [100 x [100 x i32]], align 16
  %4 = alloca i32, align 4
  %5 = alloca i32, align 4
  %6 = alloca i32, align 4
  %7 = alloca i32, align 4
  %8 = alloca i32, align 4
  %9 = alloca i32, align 4
  %10 = alloca i32, align 4
  %11 = alloca i32, align 4
  %12 = call i32 (i8*, ...) @__isoc99_scanf(i8* getelementptr inbounds ([6 x i8], [6 x i8]* @.str, i64 0, i64 0), i32* %4, i32* %5)
  store i32 0, i32* %8, align 4
  br label %13

13:                                               ; preds = %34, %0
  %14 = load i32, i32* %8, align 4
  %15 = load i32, i32* %4, align 4
  %16 = icmp slt i32 %14, %15
  br i1 %16, label %17, label %37

17:                                               ; preds = %13
  store i32 0, i32* %9, align 4
  br label %18

18:                                               ; preds = %30, %17
  %19 = load i32, i32* %9, align 4
  %20 = load i32, i32* %5, align 4
  %21 = icmp slt i32 %19, %20
  br i1 %21, label %22, label %33

22:                                               ; preds = %18
  %23 = load i32, i32* %8, align 4
  %24 = sext i32 %23 to i64
  %25 = getelementptr inbounds [100 x [100 x i32]], [100 x [100 x i32]]* %1, i64 0, i64 %24
  %26 = load i32, i32* %9, align 4
  %27 = sext i32 %26 to i64
  %28 = getelementptr inbounds [100 x i32], [100 x i32]* %25, i64 0, i64 %27
  %29 = call i32 (i8*, ...) @__isoc99_scanf(i8* getelementptr inbounds ([3 x i8], [3 x i8]* @.str.1, i64 0, i64 0), i32* %28)
  br label %30

30:                                               ; preds = %22
  %31 = load i32, i32* %9, align 4
  %32 = add nsw i32 %31, 1
  store i32 %32, i32* %9, align 4
  br label %18

33:                                               ; preds = %18
  br label %34

34:                                               ; preds = %33
  %35 = load i32, i32* %8, align 4
  %36 = add nsw i32 %35, 1
  store i32 %36, i32* %8, align 4
  br label %13

37:                                               ; preds = %13
  %38 = call i32 (i8*, ...) @__isoc99_scanf(i8* getelementptr inbounds ([6 x i8], [6 x i8]* @.str, i64 0, i64 0), i32* %6, i32* %7)
  store i32 0, i32* %8, align 4
  br label %39

39:                                               ; preds = %60, %37
  %40 = load i32, i32* %8, align 4
  %41 = load i32, i32* %6, align 4
  %42 = icmp slt i32 %40, %41
  br i1 %42, label %43, label %63

43:                                               ; preds = %39
  store i32 0, i32* %9, align 4
  br label %44

44:                                               ; preds = %56, %43
  %45 = load i32, i32* %9, align 4
  %46 = load i32, i32* %7, align 4
  %47 = icmp slt i32 %45, %46
  br i1 %47, label %48, label %59

48:                                               ; preds = %44
  %49 = load i32, i32* %8, align 4
  %50 = sext i32 %49 to i64
  %51 = getelementptr inbounds [100 x [100 x i32]], [100 x [100 x i32]]* %2, i64 0, i64 %50
  %52 = load i32, i32* %9, align 4
  %53 = sext i32 %52 to i64
  %54 = getelementptr inbounds [100 x i32], [100 x i32]* %51, i64 0, i64 %53
  %55 = call i32 (i8*, ...) @__isoc99_scanf(i8* getelementptr inbounds ([3 x i8], [3 x i8]* @.str.1, i64 0, i64 0), i32* %54)
  br label %56

56:                                               ; preds = %48
  %57 = load i32, i32* %9, align 4
  %58 = add nsw i32 %57, 1
  store i32 %58, i32* %9, align 4
  br label %44

59:                                               ; preds = %44
  br label %60

60:                                               ; preds = %59
  %61 = load i32, i32* %8, align 4
  %62 = add nsw i32 %61, 1
  store i32 %62, i32* %8, align 4
  br label %39

63:                                               ; preds = %39
  %64 = load i32, i32* %6, align 4
  %65 = load i32, i32* %5, align 4
  %66 = icmp sle i32 %64, %65
  br i1 %66, label %67, label %69

67:                                               ; preds = %63
  %68 = load i32, i32* %6, align 4
  br label %71

69:                                               ; preds = %63
  %70 = load i32, i32* %5, align 4
  br label %71

71:                                               ; preds = %69, %67
  %72 = phi i32 [ %68, %67 ], [ %70, %69 ]
  store i32 %72, i32* %10, align 4
  store i32 0, i32* %8, align 4
  br label %73

73:                                               ; preds = %129, %71
  %74 = load i32, i32* %8, align 4
  %75 = load i32, i32* %4, align 4
  %76 = icmp slt i32 %74, %75
  br i1 %76, label %77, label %132

77:                                               ; preds = %73
  store i32 0, i32* %9, align 4
  br label %78

78:                                               ; preds = %125, %77
  %79 = load i32, i32* %9, align 4
  %80 = load i32, i32* %7, align 4
  %81 = icmp slt i32 %79, %80
  br i1 %81, label %82, label %128

82:                                               ; preds = %78
  store i32 0, i32* %11, align 4
  br label %83

83:                                               ; preds = %121, %82
  %84 = load i32, i32* %11, align 4
  %85 = load i32, i32* %10, align 4
  %86 = icmp slt i32 %84, %85
  br i1 %86, label %87, label %124

87:                                               ; preds = %83
  %88 = load i32, i32* %11, align 4
  %89 = icmp eq i32 %88, 0
  br i1 %89, label %90, label %97

90:                                               ; preds = %87
  %91 = load i32, i32* %8, align 4
  %92 = sext i32 %91 to i64
  %93 = getelementptr inbounds [100 x [100 x i32]], [100 x [100 x i32]]* %3, i64 0, i64 %92
  %94 = load i32, i32* %9, align 4
  %95 = sext i32 %94 to i64
  %96 = getelementptr inbounds [100 x i32], [100 x i32]* %93, i64 0, i64 %95
  store i32 0, i32* %96, align 4
  br label %97

97:                                               ; preds = %90, %87
  %98 = load i32, i32* %8, align 4
  %99 = sext i32 %98 to i64
  %100 = getelementptr inbounds [100 x [100 x i32]], [100 x [100 x i32]]* %1, i64 0, i64 %99
  %101 = load i32, i32* %11, align 4
  %102 = sext i32 %101 to i64
  %103 = getelementptr inbounds [100 x i32], [100 x i32]* %100, i64 0, i64 %102
  %104 = load i32, i32* %103, align 4
  %105 = load i32, i32* %11, align 4
  %106 = sext i32 %105 to i64
  %107 = getelementptr inbounds [100 x [100 x i32]], [100 x [100 x i32]]* %2, i64 0, i64 %106
  %108 = load i32, i32* %9, align 4
  %109 = sext i32 %108 to i64
  %110 = getelementptr inbounds [100 x i32], [100 x i32]* %107, i64 0, i64 %109
  %111 = load i32, i32* %110, align 4
  %112 = mul nsw i32 %104, %111
  %113 = load i32, i32* %8, align 4
  %114 = sext i32 %113 to i64
  %115 = getelementptr inbounds [100 x [100 x i32]], [100 x [100 x i32]]* %3, i64 0, i64 %114
  %116 = load i32, i32* %9, align 4
  %117 = sext i32 %116 to i64
  %118 = getelementptr inbounds [100 x i32], [100 x i32]* %115, i64 0, i64 %117
  %119 = load i32, i32* %118, align 4
  %120 = add nsw i32 %119, %112
  store i32 %120, i32* %118, align 4
  br label %121

121:                                              ; preds = %97
  %122 = load i32, i32* %11, align 4
  %123 = add nsw i32 %122, 1
  store i32 %123, i32* %11, align 4
  br label %83

124:                                              ; preds = %83
  br label %125

125:                                              ; preds = %124
  %126 = load i32, i32* %9, align 4
  %127 = add nsw i32 %126, 1
  store i32 %127, i32* %9, align 4
  br label %78

128:                                              ; preds = %78
  br label %129

129:                                              ; preds = %128
  %130 = load i32, i32* %8, align 4
  %131 = add nsw i32 %130, 1
  store i32 %131, i32* %8, align 4
  br label %73

132:                                              ; preds = %73
  store i32 0, i32* %8, align 4
  br label %133

133:                                              ; preds = %165, %132
  %134 = load i32, i32* %8, align 4
  %135 = load i32, i32* %4, align 4
  %136 = sub nsw i32 %135, 1
  %137 = icmp slt i32 %134, %136
  br i1 %137, label %138, label %168

138:                                              ; preds = %133
  store i32 0, i32* %9, align 4
  br label %139

139:                                              ; preds = %153, %138
  %140 = load i32, i32* %9, align 4
  %141 = load i32, i32* %7, align 4
  %142 = sub nsw i32 %141, 1
  %143 = icmp slt i32 %140, %142
  br i1 %143, label %144, label %156

144:                                              ; preds = %139
  %145 = load i32, i32* %8, align 4
  %146 = sext i32 %145 to i64
  %147 = getelementptr inbounds [100 x [100 x i32]], [100 x [100 x i32]]* %3, i64 0, i64 %146
  %148 = load i32, i32* %9, align 4
  %149 = sext i32 %148 to i64
  %150 = getelementptr inbounds [100 x i32], [100 x i32]* %147, i64 0, i64 %149
  %151 = load i32, i32* %150, align 4
  %152 = call i32 (i8*, ...) @printf(i8* getelementptr inbounds ([4 x i8], [4 x i8]* @.str.2, i64 0, i64 0), i32 %151)
  br label %153

153:                                              ; preds = %144
  %154 = load i32, i32* %9, align 4
  %155 = add nsw i32 %154, 1
  store i32 %155, i32* %9, align 4
  br label %139

156:                                              ; preds = %139
  %157 = load i32, i32* %8, align 4
  %158 = sext i32 %157 to i64
  %159 = getelementptr inbounds [100 x [100 x i32]], [100 x [100 x i32]]* %3, i64 0, i64 %158
  %160 = load i32, i32* %9, align 4
  %161 = sext i32 %160 to i64
  %162 = getelementptr inbounds [100 x i32], [100 x i32]* %159, i64 0, i64 %161
  %163 = load i32, i32* %162, align 4
  %164 = call i32 (i8*, ...) @printf(i8* getelementptr inbounds ([4 x i8], [4 x i8]* @.str.3, i64 0, i64 0), i32 %163)
  br label %165

165:                                              ; preds = %156
  %166 = load i32, i32* %8, align 4
  %167 = add nsw i32 %166, 1
  store i32 %167, i32* %8, align 4
  br label %133

168:                                              ; preds = %133
  store i32 0, i32* %9, align 4
  br label %169

169:                                              ; preds = %183, %168
  %170 = load i32, i32* %9, align 4
  %171 = load i32, i32* %7, align 4
  %172 = sub nsw i32 %171, 1
  %173 = icmp slt i32 %170, %172
  br i1 %173, label %174, label %186

174:                                              ; preds = %169
  %175 = load i32, i32* %8, align 4
  %176 = sext i32 %175 to i64
  %177 = getelementptr inbounds [100 x [100 x i32]], [100 x [100 x i32]]* %3, i64 0, i64 %176
  %178 = load i32, i32* %9, align 4
  %179 = sext i32 %178 to i64
  %180 = getelementptr inbounds [100 x i32], [100 x i32]* %177, i64 0, i64 %179
  %181 = load i32, i32* %180, align 4
  %182 = call i32 (i8*, ...) @printf(i8* getelementptr inbounds ([4 x i8], [4 x i8]* @.str.2, i64 0, i64 0), i32 %181)
  br label %183

183:                                              ; preds = %174
  %184 = load i32, i32* %9, align 4
  %185 = add nsw i32 %184, 1
  store i32 %185, i32* %9, align 4
  br label %169

186:                                              ; preds = %169
  %187 = load i32, i32* %8, align 4
  %188 = sext i32 %187 to i64
  %189 = getelementptr inbounds [100 x [100 x i32]], [100 x [100 x i32]]* %3, i64 0, i64 %188
  %190 = load i32, i32* %9, align 4
  %191 = sext i32 %190 to i64
  %192 = getelementptr inbounds [100 x i32], [100 x i32]* %189, i64 0, i64 %191
  %193 = load i32, i32* %192, align 4
  %194 = call i32 (i8*, ...) @printf(i8* getelementptr inbounds ([3 x i8], [3 x i8]* @.str.1, i64 0, i64 0), i32 %193)
  ret void
}

declare dso_local i32 @__isoc99_scanf(i8*, ...) #1

declare dso_local i32 @printf(i8*, ...) #1


!llvm.module.flags = !{!0}
!llvm.ident = !{!1}

!0 = !{i32 1, !"wchar_size", i32 4}
!1 = !{!"clang version 10.0.0-4ubuntu1 "}
